; Function Attrs: mustprogress nofree norecurse nosync nounwind willreturn memory(readwrite, inaccessiblemem: none) uwtable
define hidden void @_ZN9Assembler5addsdE11XMMRegisterS0_(ptr noundef nonnull align 8 dereferenceable(40) %0, i32 %1, i32 %2) local_unnamed_addr #8 align 2 {
  %4 = alloca %class.InstructionAttr, align 8
  %5 = load i64, ptr @_ZN19Abstract_VM_Version9_featuresE, align 8
  %6 = and i64 %5, 134217728
  %.lobit = lshr exact i64 %6, 27
  %7 = trunc nuw nsw i64 %.lobit to i8
  store i8 %7, ptr %4, align 8
  %8 = getelementptr inbounds i8, ptr %4, i64 1
  %9 = load i32, ptr @UseAVX, align 4
  %10 = icmp slt i32 %9, 3
  %11 = zext i1 %10 to i8
  store i8 %11, ptr %8, align 1
  %12 = getelementptr inbounds i8, ptr %4, i64 2
  %13 = getelementptr inbounds i8, ptr %4, i64 6
  store i8 1, ptr %13, align 2
  %14 = getelementptr inbounds i8, ptr %4, i64 7
  store i8 0, ptr %14, align 1
  %15 = getelementptr inbounds i8, ptr %4, i64 8
  store <4 x i32> <i32 0, i32 24, i32 4, i32 0>, ptr %15, align 8
  %16 = getelementptr inbounds i8, ptr %4, i64 24
  store i32 0, ptr %16, align 8
  %17 = getelementptr inbounds i8, ptr %4, i64 32
  store ptr null, ptr %17, align 8
  store <4 x i8> <i8 1, i8 0, i8 1, i8 0>, ptr %12, align 2
  %18 = sext i32 %1 to i64
  %19 = getelementptr inbounds %"class.XMMRegister::XMMRegisterImpl", ptr getelementptr inbounds (i8, ptr @all_XMMRegisterImpls, i64 1), i64 %18
  %20 = ptrtoint ptr %19 to i64
  %21 = trunc i64 %20 to i32
  %22 = sub i32 %21, ptrtoint (ptr getelementptr inbounds (i8, ptr @all_XMMRegisterImpls, i64 1) to i32)
  %23 = sext i32 %2 to i64
  %24 = getelementptr inbounds %"class.XMMRegister::XMMRegisterImpl", ptr getelementptr inbounds (i8, ptr @all_XMMRegisterImpls, i64 1), i64 %23
  %25 = ptrtoint ptr %24 to i64
  %26 = trunc i64 %25 to i32
  %27 = sub i32 %26, ptrtoint (ptr getelementptr inbounds (i8, ptr @all_XMMRegisterImpls, i64 1) to i32)
  %28 = icmp sgt i32 %9, 0
  br i1 %28, label %29, label %32

29:                                               ; preds = %3
  %30 = icmp ult i32 %22, 32
  %spec.select.i = select i1 %30, i32 %22, i32 0
  %31 = call noundef i32 @_ZN9Assembler21vex_prefix_and_encodeEiiiNS_13VexSimdPrefixENS_9VexOpcodeEP15InstructionAttrb(ptr noundef nonnull align 8 dereferenceable(40) %0, i32 noundef %22, i32 noundef %spec.select.i, i32 noundef %27, i32 noundef 3, i32 noundef 1, ptr noundef nonnull %4, i1 noundef zeroext false)
  br label %_ZN9Assembler22simd_prefix_and_encodeE11XMMRegisterS0_S0_NS_13VexSimdPrefixENS_9VexOpcodeEP15InstructionAttrb.exit

32:                                               ; preds = %3
  %33 = icmp ne i64 %6, 0
  %34 = tail call noundef i32 @_ZN9Assembler21rex_prefix_and_encodeEiiNS_13VexSimdPrefixENS_9VexOpcodeEb(ptr noundef nonnull align 8 dereferenceable(40) %0, i32 noundef %22, i32 noundef %27, i32 noundef 3, i32 noundef 1, i1 noundef zeroext %33)
  br label %_ZN9Assembler22simd_prefix_and_encodeE11XMMRegisterS0_S0_NS_13VexSimdPrefixENS_9VexOpcodeEP15InstructionAttrb.exit

_ZN9Assembler22simd_prefix_and_encodeE11XMMRegisterS0_S0_NS_13VexSimdPrefixENS_9VexOpcodeEP15InstructionAttrb.exit: ; preds = %29, %32
  %.0.i = phi i32 [ %31, %29 ], [ %34, %32 ]
  %35 = getelementptr inbounds i8, ptr %0, i64 8
  %36 = load ptr, ptr %35, align 8
  %37 = trunc i32 %.0.i to i8
  %.0.i2.i = or i8 %37, -64
  %38 = getelementptr inbounds i8, ptr %36, i64 16
  %39 = load ptr, ptr %38, align 8
  %40 = getelementptr inbounds i8, ptr %39, i64 1
  store i8 88, ptr %39, align 1
  %41 = getelementptr inbounds i8, ptr %39, i64 2
  store i8 %.0.i2.i, ptr %40, align 1
  store ptr %41, ptr %38, align 8
  %42 = load ptr, ptr %17, align 8
  %.not.i = icmp eq ptr %42, null
  br i1 %.not.i, label %_ZN15InstructionAttrD2Ev.exit, label %43

43:                                               ; preds = %_ZN9Assembler22simd_prefix_and_encodeE11XMMRegisterS0_S0_NS_13VexSimdPrefixENS_9VexOpcodeEP15InstructionAttrb.exit
  %44 = getelementptr inbounds i8, ptr %42, i64 32
  store ptr null, ptr %44, align 8
  br label %_ZN15InstructionAttrD2Ev.exit

_ZN15InstructionAttrD2Ev.exit:                    ; preds = %_ZN9Assembler22simd_prefix_and_encodeE11XMMRegisterS0_S0_NS_13VexSimdPrefixENS_9VexOpcodeEP15InstructionAttrb.exit, %43
  ret void
}